; Function Attrs: mustprogress nofree norecurse nosync nounwind willreturn memory(read, inaccessiblemem: none) uwtable
define hidden noundef i32 @_ZNK13hilbert_basis12get_num_varsEv(ptr nocapture noundef nonnull readonly align 8 dereferenceable(127) %this) local_unnamed_addr #8 align 2 {
entry:
  %m_ineqs = getelementptr inbounds i8, ptr %this, i64 8
  %0 = load ptr, ptr %m_ineqs, align 8
  %cmp.i = icmp eq ptr %0, null
  br i1 %cmp.i, label %return, label %_ZNK6vectorIS_I13checked_int64ILb1EELb1EjELb1EjE5emptyEv.exit

_ZNK6vectorIS_I13checked_int64ILb1EELb1EjELb1EjE5emptyEv.exit: ; preds = %entry
  %arrayidx.i = getelementptr inbounds i8, ptr %0, i64 -4
  %1 = load i32, ptr %arrayidx.i, align 4
  %cmp3.i = icmp eq i32 %1, 0
  br i1 %cmp3.i, label %return, label %_ZNK6vectorIS_I13checked_int64ILb1EELb1EjELb1EjE4backEv.exit

_ZNK6vectorIS_I13checked_int64ILb1EELb1EjELb1EjE4backEv.exit: ; preds = %_ZNK6vectorIS_I13checked_int64ILb1EELb1EjELb1EjE5emptyEv.exit
  %2 = add i32 %1, -1
  %3 = zext i32 %2 to i64
  %arrayidx.i1.i = getelementptr inbounds %class.vector.1, ptr %0, i64 %3
  %4 = load ptr, ptr %arrayidx.i1.i, align 8
  %cmp.i1 = icmp eq ptr %4, null
  br i1 %cmp.i1, label %return, label %if.end.i

if.end.i:                                         ; preds = %_ZNK6vectorIS_I13checked_int64ILb1EELb1EjELb1EjE4backEv.exit
  %arrayidx.i2 = getelementptr inbounds i8, ptr %4, i64 -4
  %5 = load i32, ptr %arrayidx.i2, align 4
  br label %return

return:                                           ; preds = %entry, %if.end.i, %_ZNK6vectorIS_I13checked_int64ILb1EELb1EjELb1EjE4backEv.exit, %_ZNK6vectorIS_I13checked_int64ILb1EELb1EjELb1EjE5emptyEv.exit
  %retval.0 = phi i32 [ 0, %_ZNK6vectorIS_I13checked_int64ILb1EELb1EjELb1EjE5emptyEv.exit ], [ %5, %if.end.i ], [ 0, %_ZNK6vectorIS_I13checked_int64ILb1EELb1EjELb1EjE4backEv.exit ], [ 0, %entry ]
  ret i32 %retval.0
}